target datalayout = "e-m:e-p270:32:32-p271:32:32-p272:64:64-i64:64-i128:128-f80:128-n8:16:32:64-S128"
target triple = "x86_64-pc-linux-gnu"

%struct.ma_resampling_backend_vtable = type { ptr, ptr, ptr, ptr, ptr, ptr, ptr, ptr, ptr, ptr }
%struct.anon.62 = type { %struct.ma_context, %struct.ma_device, %union.pthread_mutex_t, i8, i64, ptr }
%struct.ma_context = type { %struct.ma_backend_callbacks, i32, ptr, %struct.ma_log, i32, i64, ptr, %struct.ma_allocation_callbacks, %union.pthread_mutex_t, %union.pthread_mutex_t, i32, i32, i32, ptr, %union.anon.36, %union.anon.41 }
%struct.ma_backend_callbacks = type { ptr, ptr, ptr, ptr, ptr, ptr, ptr, ptr, ptr, ptr, ptr, ptr, ptr }
%struct.ma_log = type { [4 x %struct.ma_log_callback], i32, %struct.ma_allocation_callbacks, %union.pthread_mutex_t }
%struct.ma_log_callback = type { ptr, ptr }
%struct.ma_allocation_callbacks = type { ptr, ptr, ptr, ptr }
%union.anon.36 = type { %struct.anon.37 }
%struct.anon.37 = type { ptr, ptr, ptr, ptr, ptr, ptr, ptr, ptr, ptr, ptr, ptr, ptr, ptr, ptr, ptr, ptr, ptr, ptr, ptr, ptr, ptr, ptr, ptr, ptr, ptr, ptr, ptr, ptr, ptr, ptr, ptr, ptr, ptr, ptr, ptr, ptr, ptr, ptr, ptr, ptr, ptr, ptr, ptr, ptr, ptr, ptr, ptr, ptr, ptr, ptr, ptr, ptr, ptr, ptr, ptr, ptr, ptr, ptr, ptr, ptr, ptr, ptr, ptr, ptr, ptr, ptr, ptr, %union.pthread_mutex_t, i32 }
%union.anon.41 = type { %struct.anon.42 }
%struct.anon.42 = type { i32 }
%struct.ma_device = type { ptr, i32, i32, %struct.ma_atomic_device_state, ptr, ptr, ptr, ptr, %union.pthread_mutex_t, %struct.ma_event, %struct.ma_event, %struct.ma_event, i64, i32, i8, i8, i8, i8, i8, %struct.ma_atomic_float, %struct.ma_duplex_rb, %struct.anon.19, %struct.anon.21, %struct.anon.26, %union.anon.27 }
%struct.ma_atomic_device_state = type { i32 }
%struct.ma_event = type { i32, %union.pthread_mutex_t, %union.pthread_cond_t }
%union.pthread_cond_t = type { %struct.__pthread_cond_s }
%struct.__pthread_cond_s = type { %union.__atomic_wide_counter, %union.__atomic_wide_counter, [2 x i32], [2 x i32], i32, i32, [2 x i32] }
%union.__atomic_wide_counter = type { i64 }
%struct.ma_atomic_float = type { float }
%struct.ma_duplex_rb = type { %struct.ma_pcm_rb }
%struct.ma_pcm_rb = type { %struct.ma_data_source_base, %struct.ma_rb, i32, i32, i32 }
%struct.ma_data_source_base = type { ptr, i64, i64, i64, i64, ptr, ptr, ptr, i32 }
%struct.ma_rb = type { ptr, i32, i32, i32, i32, i32, i8, i8, %struct.ma_allocation_callbacks }
%struct.anon.19 = type { i32, ptr, ptr, %struct.anon.20 }
%struct.anon.20 = type { i32 }
%struct.anon.21 = type { ptr, %union.ma_device_id, [256 x i8], i32, i32, i32, [254 x i8], i32, i32, i32, [254 x i8], i32, i32, i32, i32, %struct.ma_data_converter, ptr, i32, i32, ptr, i64, i64, i64 }
%union.ma_device_id = type { %union.anon.17 }
%union.anon.17 = type { ptr, [248 x i8] }
%struct.ma_data_converter = type { i32, i32, i32, i32, i32, i32, i32, i32, %struct.ma_channel_converter, %struct.ma_resampler, i8, i8, i8, i8, i8, i8, ptr }
%struct.ma_channel_converter = type { i32, i32, i32, i32, i32, ptr, ptr, ptr, %union.anon.22, ptr, i32 }
%union.anon.22 = type { ptr }
%struct.ma_resampler = type { ptr, ptr, ptr, i32, i32, i32, i32, %union.anon.23, ptr, i32 }
%union.anon.23 = type { %struct.ma_linear_resampler }
%struct.ma_linear_resampler = type { %struct.ma_linear_resampler_config, i32, i32, i32, i32, %union.anon.24, %union.anon.25, %struct.ma_lpf, ptr, i32 }
%struct.ma_linear_resampler_config = type { i32, i32, i32, i32, i32, double }
%union.anon.24 = type { ptr }
%union.anon.25 = type { ptr }
%struct.ma_lpf = type { i32, i32, i32, i32, i32, ptr, ptr, ptr, i32 }
%struct.anon.26 = type { ptr, %union.ma_device_id, [256 x i8], i32, i32, i32, [254 x i8], i32, i32, i32, [254 x i8], i32, i32, i32, i32, %struct.ma_data_converter, ptr, i32, i32 }
%union.anon.27 = type { %struct.anon.31 }
%struct.anon.31 = type { i64, %struct.ma_event, %struct.ma_event, %struct.ma_semaphore, i32, i32, %union.ma_timer, double, i32, i32, i64, i64, %struct.ma_atomic_bool32 }
%struct.ma_semaphore = type { i32, %union.pthread_mutex_t, %union.pthread_cond_t }
%union.ma_timer = type { i64 }
%struct.ma_atomic_bool32 = type { i32 }
%union.pthread_mutex_t = type { %struct.__pthread_mutex_s }
%struct.__pthread_mutex_s = type { i32, i32, i32, i32, i32, i16, i16, %struct.__pthread_internal_list }
%struct.__pthread_internal_list = type { ptr, ptr }
%struct.rAudioBuffer = type { %struct.ma_data_converter, ptr, ptr, float, float, float, i8, i8, i8, i32, [2 x i8], i32, i32, i32, ptr, ptr, ptr }

@AUDIO = internal global { %struct.anon.62, { ptr, ptr, i32, [4 x i8] }, ptr } zeroinitializer, align 8

; Function Attrs: nounwind uwtable
define internal void @ma_mutex_unlock__posix(ptr noundef %0) #0 {
  %2 = alloca ptr, align 8
  store ptr %0, ptr %2, align 8
  %3 = load ptr, ptr %2, align 8
  %4 = call i32 @pthread_mutex_unlock(ptr noundef %3) #21
  ret void
}

; Function Attrs: nounwind uwtable
define hidden i32 @ma_resampler_set_rate(ptr noundef %0, i32 noundef %1, i32 noundef %2) #0 {
  %4 = alloca i32, align 4
  %5 = alloca ptr, align 8
  %6 = alloca i32, align 4
  %7 = alloca i32, align 4
  %8 = alloca i32, align 4
  %9 = alloca i32, align 4
  store ptr %0, ptr %5, align 8
  store i32 %1, ptr %6, align 4
  store i32 %2, ptr %7, align 4
  call void @llvm.lifetime.start.p0(i64 4, ptr %8) #21
  %10 = load ptr, ptr %5, align 8
  %11 = icmp eq ptr %10, null
  br i1 %11, label %12, label %13

12:                                               ; preds = %3
  store i32 -2, ptr %4, align 4
  store i32 1, ptr %9, align 4
  br label %59

13:                                               ; preds = %3
  %14 = load i32, ptr %6, align 4
  %15 = icmp eq i32 %14, 0
  br i1 %15, label %19, label %16

16:                                               ; preds = %13
  %17 = load i32, ptr %7, align 4
  %18 = icmp eq i32 %17, 0
  br i1 %18, label %19, label %20

19:                                               ; preds = %16, %13
  store i32 -2, ptr %4, align 4
  store i32 1, ptr %9, align 4
  br label %59

20:                                               ; preds = %16
  %21 = load ptr, ptr %5, align 8
  %22 = getelementptr inbounds nuw %struct.ma_resampler, ptr %21, i32 0, i32 1
  %23 = load ptr, ptr %22, align 8
  %24 = icmp eq ptr %23, null
  br i1 %24, label %32, label %25

25:                                               ; preds = %20
  %26 = load ptr, ptr %5, align 8
  %27 = getelementptr inbounds nuw %struct.ma_resampler, ptr %26, i32 0, i32 1
  %28 = load ptr, ptr %27, align 8
  %29 = getelementptr inbounds nuw %struct.ma_resampling_backend_vtable, ptr %28, i32 0, i32 4
  %30 = load ptr, ptr %29, align 8
  %31 = icmp eq ptr %30, null
  br i1 %31, label %32, label %33

32:                                               ; preds = %25, %20
  store i32 -29, ptr %4, align 4
  store i32 1, ptr %9, align 4
  br label %59

33:                                               ; preds = %25
  %34 = load ptr, ptr %5, align 8
  %35 = getelementptr inbounds nuw %struct.ma_resampler, ptr %34, i32 0, i32 1
  %36 = load ptr, ptr %35, align 8
  %37 = getelementptr inbounds nuw %struct.ma_resampling_backend_vtable, ptr %36, i32 0, i32 4
  %38 = load ptr, ptr %37, align 8
  %39 = load ptr, ptr %5, align 8
  %40 = getelementptr inbounds nuw %struct.ma_resampler, ptr %39, i32 0, i32 2
  %41 = load ptr, ptr %40, align 8
  %42 = load ptr, ptr %5, align 8
  %43 = getelementptr inbounds nuw %struct.ma_resampler, ptr %42, i32 0, i32 0
  %44 = load ptr, ptr %43, align 8
  %45 = load i32, ptr %6, align 4
  %46 = load i32, ptr %7, align 4
  %47 = call i32 %38(ptr noundef %41, ptr noundef %44, i32 noundef %45, i32 noundef %46)
  store i32 %47, ptr %8, align 4
  %48 = load i32, ptr %8, align 4
  %49 = icmp ne i32 %48, 0
  br i1 %49, label %50, label %52

50:                                               ; preds = %33
  %51 = load i32, ptr %8, align 4
  store i32 %51, ptr %4, align 4
  store i32 1, ptr %9, align 4
  br label %59

52:                                               ; preds = %33
  %53 = load i32, ptr %6, align 4
  %54 = load ptr, ptr %5, align 8
  %55 = getelementptr inbounds nuw %struct.ma_resampler, ptr %54, i32 0, i32 5
  store i32 %53, ptr %55, align 8
  %56 = load i32, ptr %7, align 4
  %57 = load ptr, ptr %5, align 8
  %58 = getelementptr inbounds nuw %struct.ma_resampler, ptr %57, i32 0, i32 6
  store i32 %56, ptr %58, align 4
  store i32 0, ptr %4, align 4
  store i32 1, ptr %9, align 4
  br label %59

59:                                               ; preds = %52, %50, %32, %19, %12
  call void @llvm.lifetime.end.p0(i64 4, ptr %8) #21
  %60 = load i32, ptr %4, align 4
  ret i32 %60
}

; Function Attrs: nounwind uwtable
define internal void @ma_mutex_lock__posix(ptr noundef %0) #0 {
  %2 = alloca ptr, align 8
  store ptr %0, ptr %2, align 8
  %3 = load ptr, ptr %2, align 8
  %4 = call i32 @pthread_mutex_lock(ptr noundef %3) #21
  ret void
}

; Function Attrs: nounwind uwtable
define hidden void @ma_mutex_unlock(ptr noundef %0) #0 {
  %2 = alloca ptr, align 8
  store ptr %0, ptr %2, align 8
  %3 = load ptr, ptr %2, align 8
  %4 = icmp eq ptr %3, null
  br i1 %4, label %5, label %6

5:                                                ; preds = %1
  br label %8

6:                                                ; preds = %1
  %7 = load ptr, ptr %2, align 8
  call void @ma_mutex_unlock__posix(ptr noundef %7)
  br label %8

8:                                                ; preds = %6, %5
  ret void
}

; Function Attrs: nounwind uwtable
define hidden i32 @ma_data_converter_set_rate(ptr noundef %0, i32 noundef %1, i32 noundef %2) #0 {
  %4 = alloca i32, align 4
  %5 = alloca ptr, align 8
  %6 = alloca i32, align 4
  %7 = alloca i32, align 4
  store ptr %0, ptr %5, align 8
  store i32 %1, ptr %6, align 4
  store i32 %2, ptr %7, align 4
  %8 = load ptr, ptr %5, align 8
  %9 = icmp eq ptr %8, null
  br i1 %9, label %10, label %11

10:                                               ; preds = %3
  store i32 -2, ptr %4, align 4
  br label %24

11:                                               ; preds = %3
  %12 = load ptr, ptr %5, align 8
  %13 = getelementptr inbounds nuw %struct.ma_data_converter, ptr %12, i32 0, i32 13
  %14 = load i8, ptr %13, align 1
  %15 = zext i8 %14 to i32
  %16 = icmp eq i32 %15, 0
  br i1 %16, label %17, label %18

17:                                               ; preds = %11
  store i32 -3, ptr %4, align 4
  br label %24

18:                                               ; preds = %11
  %19 = load ptr, ptr %5, align 8
  %20 = getelementptr inbounds nuw %struct.ma_data_converter, ptr %19, i32 0, i32 9
  %21 = load i32, ptr %6, align 4
  %22 = load i32, ptr %7, align 4
  %23 = call i32 @ma_resampler_set_rate(ptr noundef %20, i32 noundef %21, i32 noundef %22)
  store i32 %23, ptr %4, align 4
  br label %24

24:                                               ; preds = %18, %17, %10
  %25 = load i32, ptr %4, align 4
  ret i32 %25
}

; Function Attrs: nounwind uwtable
define hidden void @ma_mutex_lock(ptr noundef %0) #0 {
  %2 = alloca ptr, align 8
  store ptr %0, ptr %2, align 8
  %3 = load ptr, ptr %2, align 8
  %4 = icmp eq ptr %3, null
  br i1 %4, label %5, label %6

5:                                                ; preds = %1
  br label %8

6:                                                ; preds = %1
  %7 = load ptr, ptr %2, align 8
  call void @ma_mutex_lock__posix(ptr noundef %7)
  br label %8

8:                                                ; preds = %6, %5
  ret void
}

; Function Attrs: nounwind uwtable
define hidden void @SetAudioBufferPitch(ptr noundef %0, float noundef %1) #0 {
  %3 = alloca ptr, align 8
  %4 = alloca float, align 4
  %5 = alloca i32, align 4
  store ptr %0, ptr %3, align 8
  store float %1, ptr %4, align 4
  %6 = load ptr, ptr %3, align 8
  %7 = icmp ne ptr %6, null
  br i1 %7, label %8, label %31

8:                                                ; preds = %2
  %9 = load float, ptr %4, align 4
  %10 = fcmp ogt float %9, 0.000000e+00
  br i1 %10, label %11, label %31

11:                                               ; preds = %8
  call void @ma_mutex_lock(ptr noundef getelementptr inbounds nuw (%struct.anon.62, ptr @AUDIO, i32 0, i32 2))
  call void @llvm.lifetime.start.p0(i64 4, ptr %5) #21
  %12 = load ptr, ptr %3, align 8
  %13 = getelementptr inbounds nuw %struct.rAudioBuffer, ptr %12, i32 0, i32 0
  %14 = getelementptr inbounds nuw %struct.ma_data_converter, ptr %13, i32 0, i32 5
  %15 = load i32, ptr %14, align 4
  %16 = uitofp i32 %15 to float
  %17 = load float, ptr %4, align 4
  %18 = fdiv float %16, %17
  %19 = fptoui float %18 to i32
  store i32 %19, ptr %5, align 4
  %20 = load ptr, ptr %3, align 8
  %21 = getelementptr inbounds nuw %struct.rAudioBuffer, ptr %20, i32 0, i32 0
  %22 = load ptr, ptr %3, align 8
  %23 = getelementptr inbounds nuw %struct.rAudioBuffer, ptr %22, i32 0, i32 0
  %24 = getelementptr inbounds nuw %struct.ma_data_converter, ptr %23, i32 0, i32 4
  %25 = load i32, ptr %24, align 8
  %26 = load i32, ptr %5, align 4
  %27 = call i32 @ma_data_converter_set_rate(ptr noundef %21, i32 noundef %25, i32 noundef %26)
  %28 = load float, ptr %4, align 4
  %29 = load ptr, ptr %3, align 8
  %30 = getelementptr inbounds nuw %struct.rAudioBuffer, ptr %29, i32 0, i32 4
  store float %28, ptr %30, align 4
  call void @ma_mutex_unlock(ptr noundef getelementptr inbounds nuw (%struct.anon.62, ptr @AUDIO, i32 0, i32 2))
  call void @llvm.lifetime.end.p0(i64 4, ptr %5) #21
  br label %31

31:                                               ; preds = %11, %8, %2
  ret void
}