; Function Attrs: nounwind uwtable
define hidden void @SetAudioBufferPitch(ptr noundef captures(address_is_null) %0, float noundef %1) local_unnamed_addr #7 {
  %3 = icmp ne ptr %0, null
  %4 = fcmp ogt float %1, 0.000000e+00
  %or.cond = and i1 %3, %4
  br i1 %or.cond, label %5, label %39

5:                                                ; preds = %2
  %6 = tail call i32 @pthread_mutex_lock(ptr noundef nonnull getelementptr inbounds nuw (i8, ptr @AUDIO, i64 4792)) #72
  %7 = getelementptr inbounds nuw i8, ptr %0, i64 20
  %8 = load i32, ptr %7, align 4
  %9 = uitofp i32 %8 to float
  %10 = fdiv float %9, %1
  %11 = fptoui float %10 to i32
  %12 = getelementptr inbounds nuw i8, ptr %0, i64 16
  %13 = load i32, ptr %12, align 8
  %14 = getelementptr inbounds nuw i8, ptr %0, i64 299
  %15 = load i8, ptr %14, align 1
  %16 = icmp eq i8 %15, 0
  br i1 %16, label %ma_data_converter_set_rate.exit, label %17

17:                                               ; preds = %5
  %18 = getelementptr inbounds nuw i8, ptr %0, i64 104
  %19 = icmp eq i32 %13, 0
  %20 = icmp eq i32 %11, 0
  %or.cond.i.i = or i1 %19, %20
  br i1 %or.cond.i.i, label %ma_data_converter_set_rate.exit, label %21

21:                                               ; preds = %17
  %22 = getelementptr inbounds nuw i8, ptr %0, i64 112
  %23 = load ptr, ptr %22, align 8
  %24 = icmp eq ptr %23, null
  br i1 %24, label %ma_data_converter_set_rate.exit, label %25

25:                                               ; preds = %21
  %26 = getelementptr inbounds nuw i8, ptr %23, i64 32
  %27 = load ptr, ptr %26, align 8
  %28 = icmp eq ptr %27, null
  br i1 %28, label %ma_data_converter_set_rate.exit, label %29

29:                                               ; preds = %25
  %30 = getelementptr inbounds nuw i8, ptr %0, i64 120
  %31 = load ptr, ptr %30, align 8
  %32 = load ptr, ptr %18, align 8
  %33 = tail call i32 %27(ptr noundef %31, ptr noundef %32, i32 noundef %13, i32 noundef %11) #72
  %.not.i.i = icmp eq i32 %33, 0
  br i1 %.not.i.i, label %34, label %ma_data_converter_set_rate.exit

34:                                               ; preds = %29
  %35 = getelementptr inbounds nuw i8, ptr %0, i64 136
  store i32 %13, ptr %35, align 8
  %36 = getelementptr inbounds nuw i8, ptr %0, i64 140
  store i32 %11, ptr %36, align 4
  br label %ma_data_converter_set_rate.exit

ma_data_converter_set_rate.exit:                  ; preds = %5, %17, %21, %25, %29, %34
  %37 = getelementptr inbounds nuw i8, ptr %0, i64 332
  store float %1, ptr %37, align 4
  %38 = tail call i32 @pthread_mutex_unlock(ptr noundef nonnull getelementptr inbounds nuw (i8, ptr @AUDIO, i64 4792)) #72
  br label %39

39:                                               ; preds = %ma_data_converter_set_rate.exit, %2
  ret void
}